target datalayout = "e-m:e-p270:32:32-p271:32:32-p272:64:64-i64:64-i128:128-f80:128-n8:16:32:64-S128"
target triple = "x86_64-pc-linux-gnu"

%struct.lua_State = type { %struct.GCRef, i8, i8, i8, i8, %struct.MRef, %struct.GCRef, ptr, ptr, %struct.MRef, %struct.MRef, %struct.GCRef, %struct.GCRef, ptr, i32 }
%struct.MRef = type { i64 }
%struct.GCRef = type { i64 }
%union.TValue = type { i64 }

; Function Attrs: nounwind uwtable
define hidden ptr @lj_lib_checkstrx(ptr noundef %0, i32 noundef %1) #0 {
  %3 = alloca ptr, align 8
  %4 = alloca i32, align 4
  %5 = alloca ptr, align 8
  store ptr %0, ptr %3, align 8, !tbaa !4
  store i32 %1, ptr %4, align 4, !tbaa !24
  call void @llvm.lifetime.start.p0(i64 8, ptr %5) #9
  %6 = load ptr, ptr %3, align 8, !tbaa !4
  %7 = getelementptr inbounds nuw %struct.lua_State, ptr %6, i32 0, i32 7
  %8 = load ptr, ptr %7, align 8, !tbaa !29
  %9 = load i32, ptr %4, align 4, !tbaa !24
  %10 = sext i32 %9 to i64
  %11 = getelementptr inbounds %union.TValue, ptr %8, i64 %10
  %12 = getelementptr inbounds %union.TValue, ptr %11, i64 -1
  store ptr %12, ptr %5, align 8, !tbaa !48
  %13 = load ptr, ptr %5, align 8, !tbaa !48
  %14 = load ptr, ptr %3, align 8, !tbaa !4
  %15 = getelementptr inbounds nuw %struct.lua_State, ptr %14, i32 0, i32 8
  %16 = load ptr, ptr %15, align 8, !tbaa !28
  %17 = icmp ult ptr %13, %16
  br i1 %17, label %18, label %24

18:                                               ; preds = %2
  %19 = load ptr, ptr %5, align 8, !tbaa !48
  %20 = load i64, ptr %19, align 8, !tbaa !23
  %21 = ashr i64 %20, 47
  %22 = trunc i64 %21 to i32
  %23 = icmp eq i32 %22, -5
  br i1 %23, label %27, label %24

24:                                               ; preds = %18, %2
  %25 = load ptr, ptr %3, align 8, !tbaa !4
  %26 = load i32, ptr %4, align 4, !tbaa !24
  call void @lj_err_argt(ptr noundef %25, i32 noundef %26, i32 noundef 4) #10
  unreachable

27:                                               ; preds = %18
  %28 = load ptr, ptr %5, align 8, !tbaa !48
  %29 = getelementptr inbounds nuw %struct.GCRef, ptr %28, i32 0, i32 0
  %30 = load i64, ptr %29, align 8, !tbaa !23
  %31 = and i64 %30, 140737488355327
  %32 = inttoptr i64 %31 to ptr
  call void @llvm.lifetime.end.p0(i64 8, ptr %5) #9
  ret ptr %32
}